target datalayout = "e-m:e-p270:32:32-p271:32:32-p272:64:64-i64:64-i128:128-f80:128-n8:16:32:64-S128"
target triple = "x86_64-unknown-linux-gnu"

%"class.std::set.0" = type { %"class.std::_Rb_tree.1" }
%"class.std::_Rb_tree.1" = type { %"struct.std::_Rb_tree<QuantLib::Observer *, QuantLib::Observer *, std::_Identity<QuantLib::Observer *>, std::less<QuantLib::Observer *>>::_Rb_tree_impl" }
%"struct.std::_Rb_tree<QuantLib::Observer *, QuantLib::Observer *, std::_Identity<QuantLib::Observer *>, std::less<QuantLib::Observer *>>::_Rb_tree_impl" = type { [8 x i8], %"struct.std::_Rb_tree_header" }
%"struct.std::_Rb_tree_header" = type { %"struct.std::_Rb_tree_node_base", i64 }
%"struct.std::_Rb_tree_node_base" = type { i32, ptr, ptr, ptr }
%"class.QuantLib::Date" = type { i64 }
%"class.boost::detail::shared_count" = type { ptr }
%"class.std::set" = type { %"class.std::_Rb_tree" }
%"class.std::_Rb_tree" = type { %"struct.std::_Rb_tree<boost::shared_ptr<QuantLib::Observable>, boost::shared_ptr<QuantLib::Observable>, std::_Identity<boost::shared_ptr<QuantLib::Observable>>, std::less<boost::shared_ptr<QuantLib::Observable>>>::_Rb_tree_impl" }
%"struct.std::_Rb_tree<boost::shared_ptr<QuantLib::Observable>, boost::shared_ptr<QuantLib::Observable>, std::_Identity<boost::shared_ptr<QuantLib::Observable>>, std::less<boost::shared_ptr<QuantLib::Observable>>>::_Rb_tree_impl" = type { [8 x i8], %"struct.std::_Rb_tree_header" }
%"class.QuantLib::Observable" = type { ptr, %"class.std::set.0" }
%"class.QuantLib::Observer" = type { ptr, %"class.std::set" }
%"class.QuantLib::CashFlow.base" = type <{ %"class.QuantLib::Event.base", %"class.QuantLib::LazyObject.base" }>
%"class.QuantLib::Event.base" = type { ptr }
%"class.QuantLib::LazyObject.base" = type <{ ptr, i8, i8, i8, i8 }>
%"class.QuantLib::Null" = type { i8 }
%"class.QuantLib::DayCounter" = type { %"class.boost::shared_ptr.16" }
%"class.boost::shared_ptr.16" = type { ptr, %"class.boost::detail::shared_count" }
%"class.QuantLib::DigitalCoupon" = type <{ %"class.QuantLib::FloatingRateCoupon.base", %"class.boost::shared_ptr.52", double, double, double, double, i8, i8, i8, i8, [4 x i8], double, double, double, double, double, double, i8, i8, [2 x i8], i32, i8, [7 x i8], %"class.QuantLib::Observable", %"class.QuantLib::Observer" }>
%"class.QuantLib::FloatingRateCoupon.base" = type { %"class.QuantLib::Coupon.base", %"class.boost::shared_ptr.50", %"class.QuantLib::DayCounter", i32, double, double, i8, %"class.boost::shared_ptr.51", double }
%"class.QuantLib::Coupon.base" = type { %"class.QuantLib::CashFlow.base", %"class.QuantLib::Date", double, %"class.QuantLib::Date", %"class.QuantLib::Date", %"class.QuantLib::Date", %"class.QuantLib::Date", %"class.QuantLib::Date", double }
%"class.boost::shared_ptr.50" = type { ptr, %"class.boost::detail::shared_count" }
%"class.boost::shared_ptr.51" = type { ptr, %"class.boost::detail::shared_count" }
%"class.boost::shared_ptr.52" = type { ptr, %"class.boost::detail::shared_count" }

; Function Attrs: mustprogress nounwind uwtable
define linkonce_odr noundef float @_ZNSt14numeric_limitsIfE3maxEv() #1 comdat align 2 {
entry:
  ret float 0x47EFFFFFE0000000
}

; Function Attrs: mustprogress nounwind uwtable
define linkonce_odr noundef float @_ZN8QuantLib6detail17FloatingPointNullILb1EE9nullValueEv() #1 comdat align 2 {
entry:
  %call = call noundef float @_ZNSt14numeric_limitsIfE3maxEv() #14
  ret float %call
}

; Function Attrs: mustprogress uwtable
define linkonce_odr noundef double @_ZNK8QuantLib4NullIdEcvdEv(ptr noundef nonnull align 1 dereferenceable(1) %this) #2 comdat align 2 {
entry:
  %this.addr = alloca ptr, align 8
  store ptr %this, ptr %this.addr, align 8, !tbaa !3
  %call = call noundef float @_ZN8QuantLib6detail17FloatingPointNullILb1EE9nullValueEv()
  %conv = fpext float %call to double
  ret double %conv
}

; Function Attrs: mustprogress uwtable
define noundef double @_ZNK8QuantLib13DigitalCoupon17callDigitalPayoffEv(ptr noundef nonnull align 8 dereferenceable(289) %this) #2 align 2 {
entry:
  %retval = alloca double, align 8
  %this.addr = alloca ptr, align 8
  %ref.tmp = alloca %"class.QuantLib::Null", align 1
  store ptr %this, ptr %this.addr, align 8, !tbaa !3
  %this1 = load ptr, ptr %this.addr, align 8
  %isCallCashOrNothing_ = getelementptr inbounds nuw %"class.QuantLib::DigitalCoupon", ptr %this1, i32 0, i32 8
  %0 = load i8, ptr %isCallCashOrNothing_, align 2, !tbaa !50, !range !15, !noundef !16
  %loadedv = trunc i8 %0 to i1
  br i1 %loadedv, label %if.then, label %if.else

if.then:                                          ; preds = %entry
  %callDigitalPayoff_ = getelementptr inbounds nuw %"class.QuantLib::DigitalCoupon", ptr %this1, i32 0, i32 11
  %1 = load double, ptr %callDigitalPayoff_, align 8, !tbaa !61
  store double %1, ptr %retval, align 8
  br label %return

if.else:                                          ; preds = %entry
  call void @llvm.lifetime.start.p0(i64 1, ptr %ref.tmp) #14
  %call = call noundef double @_ZNK8QuantLib4NullIdEcvdEv(ptr noundef nonnull align 1 dereferenceable(1) %ref.tmp)
  store double %call, ptr %retval, align 8
  call void @llvm.lifetime.end.p0(i64 1, ptr %ref.tmp) #14
  br label %return

return:                                           ; preds = %if.else, %if.then
  %2 = load double, ptr %retval, align 8
  ret double %2
}